(lp0
F0.25056728690034435
aF0.27689374605938694
aF0.31102464332036317
aF0.3513223658916611
aF0.39573121401037453
aF0.4451863747781253
aF0.5032286419419183
aF0.5714463892237974
aF0.6468527812630699
aF0.7343128664824425
aF0.8204604035196872
aF0.9054878048780488
aF0.9577385424492862
a.